(lp0
I2
aI6
aI30
aI210
aI2310
aI30030
aI510510
aI9699690
aI223092870
aI184294110
aI8678670
aI164894730
aI147537390
aI390390
aI6636630
aI126095970
aI112822710
aI5075070
aI86276190
aI65975910
aI857686830
aI25410
aI330330
aI5615610
aI106696590
aI95465370
aI4294290
aI73002930
aI55825770
aI949038090
aI725735010
aI279510
aI3633630
aI61771710
aI47237190
aI803032230
aI614083470
aI3074610
aI39969930
aI679488810
aI519609090
aI33820710
aI439669230
aI372027810
aI1470
aI16170
aI210210
aI3573570
aI67897830
aI60750690
aI2732730
aI46456410
aI882671790
aI789758970
aI35525490
aI603933330
aI461831370
aI177870
aI2312310
aI39309270
aI746876130
aI668257590
aI30060030
aI511020510
aI390780390
aI1956570
aI25435410
aI432401970
aI330660330
aI21522270
aI279789510
aI236744970
aI10290
aI113190
aI1471470
aI25014990
aI475284810
aI425254830
aI19129110
aI325194870
aI248678430
aI1245090
aI16186170
aI275164890
aI210420210
aI13695990
aI178047870
aI150655890
aI72030
aI792330
aI10300290
aI175104930
aI133903770
aI8715630
aI113303190
aI95871930
aI504210
aI5546310
aI72102030
aI937326390
aI61009410
aI793122330
aI671103510
aI3529470
aI38824170
aI504714210
aI427065870
aI24706290
aI271769190
aI172944030
aI150
aI1050
aI11550
aI150150
aI2552550
aI48498450
aI921470550
aI43393350
aI824473650
aI737686950
aI1951950
aI33183150
aI630479850
aI564113550
aI25375350
aI431380950
aI329879550
aI127050
aI1651650
aI28078050
aI533482950
aI477326850
aI21471450
aI365014650
aI279128850
aI1397550
aI18168150
aI308858550
aI236185950
aI15373050
aI199849650
aI169103550
aI7350
aI80850
aI1051050
aI17867850
aI339489150
aI303753450
aI13663650
aI232282050
aI177627450
aI889350
aI11561550
aI196546350
aI150300150
aI9782850
aI127177050
aI107611350
aI51450
aI565950
aI7357350
aI125074950
aI95645550
aI6225450
aI80930850
aI68479950
aI890239350
aI753279450
aI360150
aI3961650
aI51501450
aI875524650
aI669518850
aI43578150
aI566515950
aI479359650
aI2521050
aI27731550
aI360510150
aI305047050
aI17647350
aI194120850
aI123531450
aI864720150
aI750
aI5250
aI57750
aI750750
aI12762750
aI242492250
aI216966750
aI9759750
aI165915750
aI126876750
aI635250
aI8258250
aI140390250
aI107357250
aI6987750
aI90840750
aI76865250
aI999248250
aI845517750
aI36750
aI404250
aI5255250
aI89339250
aI68318250
aI888137250
aI4446750
aI57807750
aI982731750
aI751500750
aI48914250
aI635885250
aI538056750
aI257250
aI2829750
aI36786750
aI625374750
aI478227750
aI31127250
aI404654250
aI342399750
aI1800750
aI19808250
aI257507250
aI217890750
aI12605250
aI138657750
aI88236750
aI970604250
aI617657250
aI3750
aI26250
aI288750
aI3753750
aI63813750
aI48798750
aI829578750
aI634383750
aI3176250
aI41291250
aI701951250
aI536786250
aI34938750
aI454203750
aI384326250
aI183750
aI2021250
aI26276250
aI446696250
aI341591250
aI22233750
aI289038750
aI244571250
aI1286250
aI14148750
aI183933750
aI155636250
aI9003750
aI99041250
aI63026250
aI693288750
aI441183750
aI18750
aI131250
aI1443750
aI18768750
aI319068750
aI243993750
aI15881250
aI206456250
aI174693750
aI918750
aI10106250
aI131381250
aI111168750
aI6431250
aI70743750
aI919668750
aI778181250
aI45018750
aI495206250
aI315131250
aI93750
aI656250
aI7218750
aI93843750
aI79406250
aI873468750
aI4593750
aI50531250
aI656906250
aI555843750
aI32156250
aI353718750
aI225093750
aI468750
aI3281250
aI36093750
aI469218750
aI397031250
aI22968750
aI252656250
aI160781250
aI2343750
aI16406250
aI180468750
aI114843750
aI803906250
aI11718750
aI82031250
aI902343750
aI574218750
aI58593750
aI410156250
aI292968750
aI18
aI90
aI630
aI6930
aI90090
aI1531530
aI29099070
aI669278610
aI552882330
aI26036010
aI494684190
aI442612170
aI1171170
aI19909890
aI378287910
aI338468130
aI15225210
aI258828570
aI197927730
aI76230
aI990990
aI16846830
aI320089770
aI286396110
aI12882870
aI219008790
aI167477310
aI838530
aI10900890
aI185315130
aI141711570
aI9223830
aI119909790
aI101462130
aI4410
aI48510
aI630630
aI10720710
aI203693490
aI182252070
aI8198190
aI139369230
aI106576470
aI533610
aI6936930
aI117927810
aI90180090
aI5869710
aI76306230
aI991980990
aI64566810
aI839368530
aI710234910
aI30870
aI339570
aI4414410
aI75044970
aI57387330
aI975584610
aI746035290
aI3735270
aI48558510
aI825494670
aI631260630
aI41087970
aI534143610
aI451967670
aI216090
aI2376990
aI30900870
aI525314790
aI401711310
aI26146890
aI339909570
aI287615790
aI1512630
aI16638930
aI216306090
aI183028230
aI10588410
aI116472510
aI74118870
aI815307570
aI518832090
aI450
aI3150
aI34650
aI450450
aI7657650
aI145495350
aI130180050
aI5855850
aI99549450
aI76126050
aI989638650
aI381150
aI4954950
aI84234150
aI64414350
aI837386550
aI4192650
aI54504450
aI926575650
aI708557850
aI46119150
aI599548950
aI507310650
aI22050
aI242550
aI3153150
aI53603550
aI911260350
aI40990950
aI696846150
aI532882350
aI2668050
aI34684650
aI589639050
aI450900450
aI29348550
aI381531150
aI322834050
aI154350
aI1697850
aI22072050
aI375224850
aI286936650
aI18676350
aI242792550
aI205439850
aI1080450
aI11884950
aI154504350
aI130734450
aI7563150
aI83194650
aI915141150
aI52942050
aI582362550
aI370594350
aI2250
aI15750
aI173250
aI2252250
aI38288250
aI727476750
aI650900250
aI29279250
aI497747250
aI380630250
aI1905750
aI24774750
aI421170750
aI322071750
aI20963250
aI272522250
aI230595750
aI110250
aI1212750
aI15765750
aI268017750
aI204954750
aI13340250
aI173423250
aI146742750
aI771750
aI8489250
aI110360250
aI93381750
aI5402250
aI59424750
aI772521750
aI653672250
aI37815750
aI415973250
aI264710250
aI11250
aI78750
aI866250
aI11261250
aI191441250
aI146396250
aI9528750
aI123873750
aI104816250
aI551250
aI6063750
aI78828750
aI66701250
aI867116250
aI733713750
aI3858750
aI42446250
aI551801250
aI466908750
aI27011250
aI297123750
aI189078750
aI56250
aI393750
aI4331250
aI56306250
aI957206250
aI731981250
aI47643750
aI619368750
aI524081250
aI2756250
aI30318750
aI394143750
aI333506250
aI19293750
aI212231250
aI135056250
aI945393750
aI281250
aI1968750
aI21656250
aI281531250
aI238218750
aI13781250
aI151593750
aI96468750
aI675281250
aI1406250
aI9843750
aI108281250
aI68906250
aI757968750
aI482343750
aI7031250
aI49218750
aI541406250
aI344531250
aI35156250
aI246093750
aI175781250
aI878906250
aI54
aI270
aI1890
aI20790
aI270270
aI4594590
aI87297210
aI78108030
aI3513510
aI59729670
aI45675630
aI776485710
aI593783190
aI228690
aI2972970
aI50540490
aI960269310
aI859188330
aI38648610
aI657026370
aI502431930
aI2515590
aI32702670
aI555945390
aI425134710
aI27671490
aI359729370
aI304386390
aI13230
aI145530
aI1891890
aI32162130
aI611080470
aI546756210
aI24594570
aI418107690
aI319729410
aI1600830
aI20810790
aI353783430
aI270540270
aI17609130
aI228918690
aI193700430
aI92610
aI1018710
aI13243230
aI225134910
aI172161990
aI11205810
aI145675530
aI123263910
aI648270
aI7130970
aI92702610
aI78440670
aI862847370
aI4537890
aI49916790
aI648918270
aI549084690
aI31765230
aI349417530
aI222356610
aI1350
aI9450
aI103950
aI1351350
aI22972950
aI436486050
aI390540150
aI17567550
aI298648350
aI228378150
aI1143450
aI14864850
aI252702450
aI193243050
aI12577950
aI163513350
aI138357450
aI66150
aI727650
aI9459450
aI160810650
aI122972850
aI8004150
aI104053950
aI88045650
aI968502150
aI463050
aI5093550
aI66216150
aI860809950
aI56029050
aI728377650
aI616319550
aI3241350
aI35654850
aI463513050
aI392203350
aI22689450
aI249583950
aI158826150
aI6750
aI47250
aI519750
aI6756750
aI114864750
aI87837750
aI5717250
aI74324250
aI966215250
aI62889750
aI817566750
aI691787250
aI330750
aI3638250
aI47297250
aI804053250
aI614864250
aI40020750
aI520269750
aI440228250
aI2315250
aI25467750
aI331080750
aI280145250
aI16206750
aI178274250
aI113447250
aI794130750
aI33750
aI236250
aI2598750
aI33783750
aI574323750
aI439188750
aI28586250
aI371621250
aI314448750
aI1653750
aI18191250
aI236486250
aI200103750
aI11576250
aI127338750
aI81033750
aI891371250
aI567236250
aI168750
aI1181250
aI12993750
aI168918750
aI142931250
aI8268750
aI90956250
aI57881250
aI636693750
aI405168750
aI843750
aI5906250
aI64968750
aI844593750
aI714656250
aI41343750
aI454781250
aI289406250
aI4218750
aI29531250
aI324843750
aI206718750
aI21093750
aI147656250
aI105468750
aI738281250
aI527343750
aI162
aI810
aI5670
aI62370
aI810810
aI13783770
aI261891630
aI234324090
aI10540530
aI179189010
aI137026890
aI686070
aI8918910
aI151621470
aI115945830
aI7546770
aI98108010
aI83014470
aI913159170
aI39690
aI436590
aI5675670
aI96486390
aI73783710
aI959188230
aI4802490
aI62432370
aI811620810
aI52827390
aI686756070
aI581101290
aI277830
aI3056130
aI39729690
aI675404730
aI516485970
aI33617430
aI437026590
aI369791730
aI1944810
aI21392910
aI278107830
aI235322010
aI13613670
aI149750370
aI95295690
aI667069830
aI4050
aI28350
aI311850
aI4054050
aI68918850
aI52702650
aI895945050
aI685134450
aI3430350
aI44594550
aI758107350
aI579729150
aI37733850
aI490540050
aI415072350
aI198450
aI2182950
aI28378350
aI482431950
aI368918550
aI24012450
aI312161850
aI264136950
aI1389150
aI15280650
aI198648450
aI168087150
aI9724050
aI106964550
aI68068350
aI748751850
aI476478450
aI20250
aI141750
aI1559250
aI20270250
aI344594250
aI263513250
aI17151750
aI222972750
aI188669250
aI992250
aI10914750
aI141891750
aI120062250
aI6945750
aI76403250
aI993242250
aI840435750
aI48620250
aI534822750
aI340341750
aI101250
aI708750
aI7796250
aI101351250
aI85758750
aI943346250
aI4961250
aI54573750
aI709458750
aI600311250
aI34728750
aI382016250
aI243101250
aI506250
aI3543750
aI38981250
aI506756250
aI428793750
aI24806250
aI272868750
aI173643750
aI2531250
aI17718750
aI194906250
aI124031250
aI868218750
aI12656250
aI88593750
aI974531250
aI620156250
aI63281250
aI442968750
aI316406250
aI486
aI2430
aI17010
aI187110
aI2432430
aI41351310
aI785674890
aI702972270
aI31621590
aI537567030
aI411080670
aI2058210
aI26756730
aI454864410
aI347837490
aI22640310
aI294324030
aI249043410
aI119070
aI1309770
aI17027010
aI289459170
aI221351130
aI14407470
aI187297110
aI158482170
aI833490
aI9168390
aI119189070
aI100852290
aI5834430
aI64178730
aI834323490
aI705966030
aI40841010
aI449251110
aI285887070
aI12150
aI85050
aI935550
aI12162150
aI206756550
aI158107950
aI10291050
aI133783650
aI113201550
aI595350
aI6548850
aI85135050
aI72037350
aI936485550
aI792410850
aI4167450
aI45841950
aI595945350
aI504261450
aI29172150
aI320893650
aI204205050
aI60750
aI425250
aI4677750
aI60810750
aI790539750
aI51455250
aI668918250
aI566007750
aI2976750
aI32744250
aI425675250
aI360186750
aI20837250
aI229209750
aI145860750
aI303750
aI2126250
aI23388750
aI304053750
aI257276250
aI14883750
aI163721250
aI104186250
aI729303750
aI1518750
aI10631250
aI116943750
aI74418750
aI818606250
aI520931250
aI7593750
aI53156250
aI584718750
aI372093750
aI37968750
aI265781250
aI189843750
aI949218750
aI1458
aI7290
aI51030
aI561330
aI7297290
aI124053930
aI94864770
aI6174630
aI80270190
aI67920930
aI882972090
aI747130230
aI357210
aI3929310
aI51081030
aI868377510
aI664053390
aI43222410
aI561891330
aI475446510
aI2500470
aI27505170
aI357567210
aI302556870
aI17503290
aI192536190
aI122523030
aI857661210
aI36450
aI255150
aI2806650
aI36486450
aI620269650
aI474323850
aI30873150
aI401350950
aI339604650
aI1786050
aI19646550
aI255405150
aI216112050
aI12502350
aI137525850
aI87516450
aI962680950
aI612615150
aI182250
aI1275750
aI14033250
aI182432250
aI154365750
aI8930250
aI98232750
aI62511750
aI687629250
aI437582250
aI911250
aI6378750
aI70166250
aI912161250
aI771828750
aI44651250
aI491163750
aI312558750
aI4556250
aI31893750
aI350831250
aI223256250
aI22781250
aI159468750
aI113906250
aI797343750
aI569531250
aI4374
aI21870
aI153090
aI1683990
aI21891870
aI372161790
aI284594310
aI18523890
aI240810570
aI203762790
aI1071630
aI11787930
aI153243090
aI129667230
aI7501410
aI82515510
aI907670610
aI52509870
aI577608570
aI367569090
aI109350
aI765450
aI8419950
aI109459350
aI92619450
aI5358150
aI58939650
aI766215450
aI648336150
aI37507050
aI412577550
aI262549350
aI546750
aI3827250
aI42099750
aI547296750
aI463097250
aI26790750
aI294698250
aI187535250
aI2733750
aI19136250
aI210498750
aI133953750
aI937676250
aI13668750
aI95681250
aI669768750
aI68343750
aI478406250
aI341718750
aI13122
aI65610
aI459270
aI5051970
aI65675610
aI853782930
aI55571670
aI722431710
aI611288370
aI3214890
aI35363790
aI459729270
aI389001690
aI22504230
aI247546530
aI157529610
aI328050
aI2296350
aI25259850
aI328378050
aI277858350
aI16074450
aI176818950
aI112521150
aI787648050
aI1640250
aI11481750
aI126299250
aI80372250
aI884094750
aI562605750
aI8201250
aI57408750
aI631496250
aI401861250
aI41006250
aI287043750
aI205031250
aI39366
aI196830
aI1377810
aI15155910
aI197026830
aI166715010
aI9644670
aI106091370
aI67512690
aI742639590
aI472588830
aI984150
aI6889050
aI75779550
aI985134150
aI833575050
aI48223350
aI530456850
aI337563450
aI4920750
aI34445250
aI378897750
aI241116750
aI24603750
aI172226250
aI123018750
aI861131250
aI615093750
aI118098
aI590490
aI4133430
aI45467730
aI591080490
aI500145030
aI28934010
aI318274110
aI202538070
aI2952450
aI20667150
aI227338650
aI144670050
aI14762250
aI103335750
aI723350250
aI73811250
aI516678750
aI369056250
aI354294
aI1771470
aI12400290
aI136403190
aI86802030
aI954822330
aI607614210
aI8857350
aI62001450
aI682015950
aI434010150
aI44286750
aI310007250
aI221433750
aI1062882
aI5314410
aI37200870
aI409209570
aI260406090
aI26572050
aI186004350
aI132860250
aI930021750
aI664301250
aI3188646
aI15943230
aI111602610
aI781218270
aI79716150
aI558013050
aI398580750
aI9565938
aI47829690
aI334807830
aI239148450
aI28697814
aI143489070
aI717445350
aI86093442
aI430467210
aI258280326
aI4
aI12
aI60
aI420
aI4620
aI60060
aI1021020
aI19399380
aI446185740
aI368588220
aI17357340
aI329789460
aI295074780
aI780780
aI13273260
aI252191940
aI225645420
aI10150140
aI172552380
aI131951820
aI50820
aI660660
aI11231220
aI213393180
aI190930740
aI8588580
aI146005860
aI111651540
aI559020
aI7267260
aI123543420
aI94474380
aI6149220
aI79939860
aI67641420
aI879338460
aI744055620
aI2940
aI32340
aI420420
aI7147140
aI135795660
aI121501380
aI5465460
aI92912820
aI71050980
aI923662740
aI355740
aI4624620
aI78618540
aI60120060
aI781560780
aI3913140
aI50870820
aI864803940
aI661320660
aI43044540
aI559579020
aI473489940
aI20580
aI226380
aI2942940
aI50029980
aI950569620
aI850509660
aI38258220
aI650389740
aI497356860
aI2490180
aI32372340
aI550329780
aI420840420
aI27391980
aI356095740
aI301311780
aI144060
aI1584660
aI20600580
aI350209860
aI267807540
aI17431260
aI226606380
aI191743860
aI1008420
aI11092620
aI144204060
aI122018820
aI7058940
aI77648340
aI854131740
aI49412580
aI543538380
aI345888060
aI300
aI2100
aI23100
aI300300
aI5105100
aI96996900
aI86786700
aI3903900
aI66366300
aI50750700
aI862761900
aI659759100
aI254100
aI3303300
aI56156100
aI954653700
aI42942900
aI730029300
aI558257700
aI2795100
aI36336300
aI617717100
aI472371900
aI30746100
aI399699300
aI338207100
aI14700
aI161700
aI2102100
aI35735700
aI678978300
aI607506900
aI27327300
aI464564100
aI355254900
aI1778700
aI23123100
aI393092700
aI300600300
aI19565700
aI254354100
aI215222700
aI102900
aI1131900
aI14714700
aI250149900
aI191291100
aI12450900
aI161861700
aI136959900
aI720300
aI7923300
aI103002900
aI87156300
aI958719300
aI5042100
aI55463100
aI721020300
aI610094100
aI35294700
aI388241700
aI247062900
aI1500
aI10500
aI115500
aI1501500
aI25525500
aI484984500
aI433933500
aI19519500
aI331831500
aI253753500
aI1270500
aI16516500
aI280780500
aI214714500
aI13975500
aI181681500
aI153730500
aI73500
aI808500
aI10510500
aI178678500
aI136636500
aI8893500
aI115615500
aI97828500
aI514500
aI5659500
aI73573500
aI956455500
aI62254500
aI809308500
aI684799500
aI3601500
aI39616500
aI515014500
aI435781500
aI25210500
aI277315500
aI176473500
aI7500
aI52500
aI577500
aI7507500
aI127627500
aI97597500
aI6352500
aI82582500
aI69877500
aI908407500
aI768652500
aI367500
aI4042500
aI52552500
aI893392500
aI683182500
aI44467500
aI578077500
aI489142500
aI2572500
aI28297500
aI367867500
aI311272500
aI18007500
aI198082500
aI126052500
aI882367500
aI37500
aI262500
aI2887500
aI37537500
aI638137500
aI487987500
aI31762500
aI412912500
aI349387500
aI1837500
aI20212500
aI262762500
aI222337500
aI12862500
aI141487500
aI90037500
aI990412500
aI630262500
aI187500
aI1312500
aI14437500
aI187687500
aI158812500
aI9187500
aI101062500
aI64312500
aI707437500
aI450187500
aI937500
aI6562500
aI72187500
aI938437500
aI794062500
aI45937500
aI505312500
aI321562500
aI4687500
aI32812500
aI360937500
aI229687500
aI23437500
aI164062500
aI117187500
aI820312500
aI585937500
aI36
aI180
aI1260
aI13860
aI180180
aI3063060
aI58198140
aI52072020
aI989368380
aI885224340
aI2342340
aI39819780
aI756575820
aI676936260
aI30450420
aI517657140
aI395855460
aI152460
aI1981980
aI33693660
aI640179540
aI572792220
aI25765740
aI438017580
aI334954620
aI1677060
aI21801780
aI370630260
aI283423140
aI18447660
aI239819580
aI202924260
aI8820
aI97020
aI1261260
aI21441420
aI407386980
aI364504140
aI16396380
aI278738460
aI213152940
aI1067220
aI13873860
aI235855620
aI180360180
aI11739420
aI152612460
aI129133620
aI61740
aI679140
aI8828820
aI150089940
aI114774660
aI7470540
aI97117020
aI82175940
aI903935340
aI432180
aI4753980
aI61801740
aI803422620
aI52293780
aI679819140
aI575231580
aI3025260
aI33277860
aI432612180
aI366056460
aI21176820
aI232945020
aI148237740
aI900
aI6300
aI69300
aI900900
aI15315300
aI290990700
aI260360100
aI11711700
aI199098900
aI152252100
aI762300
aI9909900
aI168468300
aI128828700
aI8385300
aI109008900
aI92238300
aI44100
aI485100
aI6306300
aI107207100
aI81981900
aI5336100
aI69369300
aI901800900
aI58697100
aI763062300
aI645668100
aI308700
aI3395700
aI44144100
aI750449700
aI573873300
aI37352700
aI485585100
aI410879700
aI2160900
aI23769900
aI309008700
aI261468900
aI15126300
aI166389300
aI105884100
aI741188700
aI4500
aI31500
aI346500
aI4504500
aI76576500
aI58558500
aI995494500
aI761260500
aI3811500
aI49549500
aI842341500
aI644143500
aI41926500
aI545044500
aI461191500
aI220500
aI2425500
aI31531500
aI536035500
aI409909500
aI26680500
aI346846500
aI293485500
aI1543500
aI16978500
aI220720500
aI186763500
aI10804500
aI118849500
aI75631500
aI831946500
aI529420500
aI22500
aI157500
aI1732500
aI22522500
aI382882500
aI292792500
aI19057500
aI247747500
aI209632500
aI1102500
aI12127500
aI157657500
aI133402500
aI7717500
aI84892500
aI933817500
aI54022500
aI594247500
aI378157500
aI112500
aI787500
aI8662500
aI112612500
aI95287500
aI5512500
aI60637500
aI788287500
aI667012500
aI38587500
aI424462500
aI270112500
aI562500
aI3937500
aI43312500
aI563062500
aI476437500
aI27562500
aI303187500
aI192937500
aI2812500
aI19687500
aI216562500
aI137812500
aI964687500
aI14062500
aI98437500
aI689062500
aI70312500
aI492187500
aI351562500
aI108
aI540
aI3780
aI41580
aI540540
aI9189180
aI174594420
aI156216060
aI7027020
aI119459340
aI91351260
aI457380
aI5945940
aI101080980
aI77297220
aI5031180
aI65405340
aI850269420
aI55342980
aI719458740
aI608772780
aI26460
aI291060
aI3783780
aI64324260
aI49189140
aI836215380
aI639458820
aI3201660
aI41621580
aI707566860
aI541080540
aI35218260
aI457837380
aI387400860
aI185220
aI2037420
aI26486460
aI450269820
aI344323980
aI22411620
aI291351060
aI246527820
aI1296540
aI14261940
aI185405220
aI156881340
aI9075780
aI99833580
aI63530460
aI698835060
aI444713220
aI2700
aI18900
aI207900
aI2702700
aI45945900
aI872972100
aI781080300
aI35135100
aI597296700
aI456756300
aI2286900
aI29729700
aI505404900
aI386486100
aI25155900
aI327026700
aI276714900
aI132300
aI1455300
aI18918900
aI321621300
aI245945700
aI16008300
aI208107900
aI176091300
aI926100
aI10187100
aI132432300
aI112058100
aI6482700
aI71309700
aI927026100
aI784406700
aI45378900
aI499167900
aI317652300
aI13500
aI94500
aI1039500
aI13513500
aI229729500
aI175675500
aI11434500
aI148648500
aI125779500
aI661500
aI7276500
aI94594500
aI80041500
aI880456500
aI4630500
aI50935500
aI662161500
aI560290500
aI32413500
aI356548500
aI226894500
aI67500
aI472500
aI5197500
aI67567500
aI878377500
aI57172500
aI743242500
aI628897500
aI3307500
aI36382500
aI472972500
aI400207500
aI23152500
aI254677500
aI162067500
aI337500
aI2362500
aI25987500
aI337837500
aI285862500
aI16537500
aI181912500
aI115762500
aI810337500
aI1687500
aI11812500
aI129937500
aI82687500
aI909562500
aI578812500
aI8437500
aI59062500
aI649687500
aI413437500
aI42187500
aI295312500
aI210937500
aI324
aI1620
aI11340
aI124740
aI1621620
aI27567540
aI523783260
aI468648180
aI21081060
aI358378020
aI274053780
aI1372140
aI17837820
aI303242940
aI231891660
aI15093540
aI196216020
aI166028940
aI79380
aI873180
aI11351340
aI192972780
aI147567420
aI9604980
aI124864740
aI105654780
aI555660
aI6112260
aI79459380
aI67234860
aI874053180
aI739583460
aI3889620
aI42785820
aI556215660
aI470644020
aI27227340
aI299500740
aI190591380
aI8100
aI56700
aI623700
aI8108100
aI137837700
aI105405300
aI6860700
aI89189100
aI75467700
aI981080100
aI830144700
aI396900
aI4365900
aI56756700
aI964863900
aI737837100
aI48024900
aI624323700
aI528273900
aI2778300
aI30561300
aI397296900
aI336174300
aI19448100
aI213929100
aI136136700
aI952956900
aI40500
aI283500
aI3118500
aI40540500
aI689188500
aI527026500
aI34303500
aI445945500
aI377338500
aI1984500
aI21829500
aI283783500
aI240124500
aI13891500
aI152806500
aI97240500
aI680683500
aI202500
aI1417500
aI15592500
aI202702500
aI171517500
aI9922500
aI109147500
aI69457500
aI764032500
aI486202500
aI1012500
aI7087500
aI77962500
aI857587500
aI49612500
aI545737500
aI347287500
aI5062500
aI35437500
aI389812500
aI248062500
aI25312500
aI177187500
aI126562500
aI885937500
aI632812500
aI972
aI4860
aI34020
aI374220
aI4864860
aI82702620
aI63243180
aI822161340
aI4116420
aI53513460
aI909728820
aI695674980
aI45280620
aI588648060
aI498086820
aI238140
aI2619540
aI34054020
aI578918340
aI442702260
aI28814940
aI374594220
aI316964340
aI1666980
aI18336780
aI238378140
aI201704580
aI11668860
aI128357460
aI81682020
aI898502220
aI571774140
aI24300
aI170100
aI1871100
aI24324300
aI413513100
aI316215900
aI20582100
aI267567300
aI226403100
aI1190700
aI13097700
aI170270100
aI144074700
aI8334900
aI91683900
aI58344300
aI641787300
aI408410100
aI121500
aI850500
aI9355500
aI121621500
aI102910500
aI5953500
aI65488500
aI851350500
aI720373500
aI41674500
aI458419500
aI291721500
aI607500
aI4252500
aI46777500
aI608107500
aI514552500
aI29767500
aI327442500
aI208372500
aI3037500
aI21262500
aI233887500
aI148837500
aI15187500
aI106312500
aI744187500
aI75937500
aI531562500
aI379687500
aI2916
aI14580
aI102060
aI1122660
aI14594580
aI248107860
aI189729540
aI12349260
aI160540380
aI135841860
aI714420
aI7858620
aI102162060
aI86444820
aI950893020
aI5000940
aI55010340
aI715134420
aI605113740
aI35006580
aI385072380
aI245046060
aI72900
aI510300
aI5613300
aI72972900
aI948647700
aI61746300
aI802701900
aI679209300
aI3572100
aI39293100
aI510810300
aI432224100
aI25004700
aI275051700
aI175032900
aI364500
aI2551500
aI28066500
aI364864500
aI308731500
aI17860500
aI196465500
aI125023500
aI875164500
aI1822500
aI12757500
aI140332500
aI89302500
aI982327500
aI625117500
aI9112500
aI63787500
aI701662500
aI446512500
aI45562500
aI318937500
aI227812500
aI8748
aI43740
aI306180
aI3367980
aI43783740
aI744323580
aI569188620
aI37047780
aI481621140
aI407525580
aI2143260
aI23575860
aI306486180
aI259334460
aI15002820
aI165031020
aI105019740
aI735138180
aI218700
aI1530900
aI16839900
aI218918700
aI185238900
aI10716300
aI117879300
aI75014100
aI825155100
aI525098700
aI1093500
aI7654500
aI84199500
aI926194500
aI53581500
aI589396500
aI375070500
aI5467500
aI38272500
aI420997500
aI267907500
aI27337500
aI191362500
aI136687500
aI956812500
aI683437500
aI26244
aI131220
aI918540
aI10103940
aI131351220
aI111143340
aI6429780
aI70727580
aI919458540
aI778003380
aI45008460
aI495093060
aI315059220
aI656100
aI4592700
aI50519700
aI656756100
aI555716700
aI32148900
aI353637900
aI225042300
aI3280500
aI22963500
aI252598500
aI160744500
aI16402500
aI114817500
aI803722500
aI82012500
aI574087500
aI410062500
aI78732
aI393660
aI2755620
aI30311820
aI394053660
aI333430020
aI19289340
aI212182740
aI135025380
aI945177660
aI1968300
aI13778100
aI151559100
aI96446700
aI675126900
aI9841500
aI68890500
aI757795500
aI482233500
aI49207500
aI344452500
aI246037500
aI236196
aI1180980
aI8266860
aI90935460
aI57868020
aI636548220
aI405076140
aI5904900
aI41334300
aI454677300
aI289340100
aI29524500
aI206671500
aI147622500
aI738112500
aI708588
aI3542940
aI24800580
aI272806380
aI173604060
aI17714700
aI124002900
aI868020300
aI88573500
aI620014500
aI442867500
aI2125764
aI10628820
aI74401740
aI818419140
aI520812180
aI53144100
aI372008700
aI265720500
aI6377292
aI31886460
aI223205220
aI159432300
aI797161500
aI19131876
aI95659380
aI669615660
aI478296900
aI57395628
aI286978140
aI172186884
aI860934420
aI516560652
aI8
aI24
aI120
aI840
aI9240
aI120120
aI2042040
aI38798760
aI892371480
aI737176440
aI34714680
aI659578920
aI590149560
aI1561560
aI26546520
aI504383880
aI451290840
aI20300280
aI345104760
aI263903640
aI101640
aI1321320
aI22462440
aI426786360
aI381861480
aI17177160
aI292011720
aI223303080
aI1118040
aI14534520
aI247086840
aI188948760
aI12298440
aI159879720
aI135282840
aI5880
aI64680
aI840840
aI14294280
aI271591320
aI243002760
aI10930920
aI185825640
aI142101960
aI711480
aI9249240
aI157237080
aI120240120
aI7826280
aI101741640
aI86089080
aI946979880
aI41160
aI452760
aI5885880
aI100059960
aI76516440
aI994713720
aI4980360
aI64744680
aI841680840
aI54783960
aI712191480
aI602623560
aI288120
aI3169320
aI41201160
aI700419720
aI535615080
aI34862520
aI453212760
aI383487720
aI2016840
aI22185240
aI288408120
aI244037640
aI14117880
aI155296680
aI98825160
aI691776120
aI600
aI4200
aI46200
aI600600
aI10210200
aI193993800
aI173573400
aI7807800
aI132732600
aI101501400
aI508200
aI6606600
aI112312200
aI85885800
aI5590200
aI72672600
aI944743800
aI61492200
aI799398600
aI676414200
aI29400
aI323400
aI4204200
aI71471400
aI54654600
aI929128200
aI710509800
aI3557400
aI46246200
aI786185400
aI601200600
aI39131400
aI508708200
aI430445400
aI205800
aI2263800
aI29429400
aI500299800
aI382582200
aI24901800
aI323723400
aI273919800
aI1440600
aI15846600
aI206005800
aI174312600
aI10084200
aI110926200
aI70589400
aI776483400
aI494125800
aI3000
aI21000
aI231000
aI3003000
aI51051000
aI969969000
aI867867000
aI39039000
aI663663000
aI507507000
aI2541000
aI33033000
aI561561000
aI429429000
aI27951000
aI363363000
aI307461000
aI147000
aI1617000
aI21021000
aI357357000
aI273273000
aI17787000
aI231231000
aI195657000
aI1029000
aI11319000
aI147147000
aI124509000
aI7203000
aI79233000
aI871563000
aI50421000
aI554631000
aI352947000
aI15000
aI105000
aI1155000
aI15015000
aI255255000
aI195195000
aI12705000
aI165165000
aI139755000
aI735000
aI8085000
aI105105000
aI88935000
aI978285000
aI5145000
aI56595000
aI735735000
aI622545000
aI36015000
aI396165000
aI252105000
aI75000
aI525000
aI5775000
aI75075000
aI975975000
aI63525000
aI825825000
aI698775000
aI3675000
aI40425000
aI525525000
aI444675000
aI25725000
aI282975000
aI180075000
aI375000
aI2625000
aI28875000
aI375375000
aI317625000
aI18375000
aI202125000
aI128625000
aI900375000
aI1875000
aI13125000
aI144375000
aI91875000
aI643125000
aI9375000
aI65625000
aI721875000
aI459375000
aI46875000
aI328125000
aI234375000
aI72
aI360
aI2520
aI27720
aI360360
aI6126120
aI116396280
aI104144040
aI4684680
aI79639560
aI60900840
aI791710920
aI304920
aI3963960
aI67387320
aI51531480
aI876035160
aI669909240
aI3354120
aI43603560
aI741260520
aI566846280
aI36895320
aI479639160
aI405848520
aI17640
aI194040
aI2522520
aI42882840
aI814773960
aI729008280
aI32792760
aI557476920
aI426305880
aI2134440
aI27747720
aI471711240
aI360720360
aI23478840
aI305224920
aI258267240
aI123480
aI1358280
aI17657640
aI300179880
aI229549320
aI14941080
aI194234040
aI164351880
aI864360
aI9507960
aI123603480
aI104587560
aI6050520
aI66555720
aI865224360
aI732112920
aI42353640
aI465890040
aI296475480
aI1800
aI12600
aI138600
aI1801800
aI30630600
aI581981400
aI520720200
aI23423400
aI398197800
aI304504200
aI1524600
aI19819800
aI336936600
aI257657400
aI16770600
aI218017800
aI184476600
aI88200
aI970200
aI12612600
aI214414200
aI163963800
aI10672200
aI138738600
aI117394200
aI617400
aI6791400
aI88288200
aI74705400
aI971170200
aI821759400
aI4321800
aI47539800
aI618017400
aI522937800
aI30252600
aI332778600
aI211768200
aI9000
aI63000
aI693000
aI9009000
aI153153000
aI117117000
aI7623000
aI99099000
aI83853000
aI922383000
aI441000
aI4851000
aI63063000
aI819819000
aI53361000
aI693693000
aI586971000
aI3087000
aI33957000
aI441441000
aI373527000
aI21609000
aI237699000
aI151263000
aI45000
aI315000
aI3465000
aI45045000
aI765765000
aI585585000
aI38115000
aI495495000
aI419265000
aI2205000
aI24255000
aI315315000
aI266805000
aI15435000
aI169785000
aI108045000
aI756315000
aI225000
aI1575000
aI17325000
aI225225000
aI190575000
aI11025000
aI121275000
aI77175000
aI848925000
aI540225000
aI1125000
aI7875000
aI86625000
aI952875000
aI55125000
aI606375000
aI385875000
aI5625000
aI39375000
aI433125000
aI275625000
aI28125000
aI196875000
aI140625000
aI984375000
aI703125000
aI216
aI1080
aI7560
aI83160
aI1081080
aI18378360
aI349188840
aI312432120
aI14054040
aI238918680
aI182702520
aI914760
aI11891880
aI202161960
aI154594440
aI10062360
aI130810680
aI110685960
aI52920
aI582120
aI7567560
aI128648520
aI98378280
aI6403320
aI83243160
aI70436520
aI915674760
aI774801720
aI370440
aI4074840
aI52972920
aI900539640
aI688647960
aI44823240
aI582702120
aI493055640
aI2593080
aI28523880
aI370810440
aI313762680
aI18151560
aI199667160
aI127060920
aI889426440
aI5400
aI37800
aI415800
aI5405400
aI91891800
aI70270200
aI913512600
aI4573800
aI59459400
aI772972200
aI50311800
aI654053400
aI553429800
aI264600
aI2910600
aI37837800
aI643242600
aI491891400
aI32016600
aI416215800
aI352182600
aI1852200
aI20374200
aI264864600
aI224116200
aI12965400
aI142619400
aI90757800
aI998335800
aI635304600
aI27000
aI189000
aI2079000
aI27027000
aI459459000
aI351351000
aI22869000
aI297297000
aI251559000
aI1323000
aI14553000
aI189189000
aI160083000
aI9261000
aI101871000
aI64827000
aI713097000
aI453789000
aI135000
aI945000
aI10395000
aI135135000
aI114345000
aI6615000
aI72765000
aI945945000
aI800415000
aI46305000
aI509355000
aI324135000
aI675000
aI4725000
aI51975000
aI675675000
aI571725000
aI33075000
aI363825000
aI231525000
aI3375000
aI23625000
aI259875000
aI165375000
aI16875000
aI118125000
aI826875000
aI84375000
aI590625000
aI421875000
aI648
aI3240
aI22680
aI249480
aI3243240
aI55135080
aI937296360
aI42162120
aI716756040
aI548107560
aI2744280
aI35675640
aI606485880
aI463783320
aI30187080
aI392432040
aI332057880
aI158760
aI1746360
aI22702680
aI385945560
aI295134840
aI19209960
aI249729480
aI211309560
aI1111320
aI12224520
aI158918760
aI134469720
aI7779240
aI85571640
aI941288040
aI54454680
aI599001480
aI381182760
aI16200
aI113400
aI1247400
aI16216200
aI275675400
aI210810600
aI13721400
aI178378200
aI150935400
aI793800
aI8731800
aI113513400
aI96049800
aI5556600
aI61122600
aI794593800
aI672348600
aI38896200
aI427858200
aI272273400
aI81000
aI567000
aI6237000
aI81081000
aI68607000
aI891891000
aI754677000
aI3969000
aI43659000
aI567567000
aI480249000
aI27783000
aI305613000
aI194481000
aI405000
aI2835000
aI31185000
aI405405000
aI343035000
aI19845000
aI218295000
aI138915000
aI972405000
aI2025000
aI14175000
aI155925000
aI99225000
aI694575000
aI10125000
aI70875000
aI779625000
aI496125000
aI50625000
aI354375000
aI253125000
aI1944
aI9720
aI68040
aI748440
aI9729720
aI165405240
aI126486360
aI8232840
aI107026920
aI90561240
aI996173640
aI476280
aI5239080
aI68108040
aI885404520
aI57629880
aI749188440
aI633928680
aI3333960
aI36673560
aI476756280
aI403409160
aI23337720
aI256714920
aI163364040
aI48600
aI340200
aI3742200
aI48648600
aI827026200
aI632431800
aI41164200
aI535134600
aI452806200
aI2381400
aI26195400
aI340540200
aI288149400
aI16669800
aI183367800
aI116688600
aI816820200
aI243000
aI1701000
aI18711000
aI243243000
aI205821000
aI11907000
aI130977000
aI83349000
aI916839000
aI583443000
aI1215000
aI8505000
aI93555000
aI59535000
aI654885000
aI416745000
aI6075000
aI42525000
aI467775000
aI297675000
aI30375000
aI212625000
aI151875000
aI759375000
aI5832
aI29160
aI204120
aI2245320
aI29189160
aI496215720
aI379459080
aI24698520
aI321080760
aI271683720
aI1428840
aI15717240
aI204324120
aI172889640
aI10001880
aI110020680
aI70013160
aI770144760
aI490092120
aI145800
aI1020600
aI11226600
aI145945800
aI123492600
aI7144200
aI78586200
aI864448200
aI50009400
aI550103400
aI350065800
aI729000
aI5103000
aI56133000
aI729729000
aI617463000
aI35721000
aI392931000
aI250047000
aI3645000
aI25515000
aI280665000
aI178605000
aI18225000
aI127575000
aI893025000
aI91125000
aI637875000
aI455625000
aI17496
aI87480
aI612360
aI6735960
aI87567480
aI74095560
aI963242280
aI815051160
aI4286520
aI47151720
aI612972360
aI518668920
aI30005640
aI330062040
aI210039480
aI437400
aI3061800
aI33679800
aI437837400
aI370477800
aI21432600
aI235758600
aI150028200
aI2187000
aI15309000
aI168399000
aI107163000
aI750141000
aI10935000
aI76545000
aI841995000
aI535815000
aI54675000
aI382725000
aI273375000
aI52488
aI262440
aI1837080
aI20207880
aI262702440
aI222286680
aI12859560
aI141455160
aI90016920
aI990186120
aI630118440
aI1312200
aI9185400
aI101039400
aI64297800
aI707275800
aI450084600
aI6561000
aI45927000
aI505197000
aI321489000
aI32805000
aI229635000
aI164025000
aI820125000
aI157464
aI787320
aI5511240
aI60623640
aI788107320
aI666860040
aI38578680
aI424365480
aI270050760
aI3936600
aI27556200
aI303118200
aI192893400
aI19683000
aI137781000
aI964467000
aI98415000
aI688905000
aI492075000
aI472392
aI2361960
aI16533720
aI181870920
aI115736040
aI810152280
aI11809800
aI82668600
aI909354600
aI578680200
aI59049000
aI413343000
aI295245000
aI1417176
aI7085880
aI49601160
aI545612760
aI347208120
aI35429400
aI248005800
aI177147000
aI885735000
aI4251528
aI21257640
aI148803480
aI106288200
aI744017400
aI531441000
aI12754584
aI63772920
aI446410440
aI318864600
aI38263752
aI191318760
aI956593800
aI114791256
aI573956280
aI344373768
aI16
aI48
aI240
aI1680
aI18480
aI240240
aI4084080
aI77597520
aI69429360
aI3123120
aI53093040
aI902581680
aI40600560
aI690209520
aI527807280
aI203280
aI2642640
aI44924880
aI853572720
aI763722960
aI34354320
aI584023440
aI446606160
aI2236080
aI29069040
aI494173680
aI377897520
aI24596880
aI319759440
aI270565680
aI11760
aI129360
aI1681680
aI28588560
aI543182640
aI486005520
aI21861840
aI371651280
aI284203920
aI1422960
aI18498480
aI314474160
aI240480240
aI15652560
aI203483280
aI172178160
aI82320
aI905520
aI11771760
aI200119920
aI153032880
aI9960720
aI129489360
aI109567920
aI576240
aI6338640
aI82402320
aI69725040
aI906425520
aI766975440
aI4033680
aI44370480
aI576816240
aI488075280
aI28235760
aI310593360
aI197650320
aI1200
aI8400
aI92400
aI1201200
aI20420400
aI387987600
aI347146800
aI15615600
aI265465200
aI203002800
aI1016400
aI13213200
aI224624400
aI171771600
aI11180400
aI145345200
aI122984400
aI58800
aI646800
aI8408400
aI142942800
aI109309200
aI7114800
aI92492400
aI78262800
aI860890800
aI411600
aI4527600
aI58858800
aI765164400
aI49803600
aI647446800
aI547839600
aI2881200
aI31693200
aI412011600
aI348625200
aI20168400
aI221852400
aI141178800
aI988251600
aI6000
aI42000
aI462000
aI6006000
aI102102000
aI78078000
aI5082000
aI66066000
aI858858000
aI55902000
aI726726000
aI614922000
aI294000
aI3234000
aI42042000
aI714714000
aI546546000
aI35574000
aI462462000
aI391314000
aI2058000
aI22638000
aI294294000
aI249018000
aI14406000
aI158466000
aI100842000
aI705894000
aI30000
aI210000
aI2310000
aI30030000
aI510510000
aI390390000
aI25410000
aI330330000
aI279510000
aI1470000
aI16170000
aI210210000
aI177870000
aI10290000
aI113190000
aI72030000
aI792330000
aI504210000
aI150000
aI1050000
aI11550000
aI150150000
aI127050000
aI7350000
aI80850000
aI889350000
aI51450000
aI565950000
aI360150000
aI750000
aI5250000
aI57750000
aI750750000
aI635250000
aI36750000
aI404250000
aI257250000
aI3750000
aI26250000
aI288750000
aI183750000
aI18750000
aI131250000
aI918750000
aI93750000
aI656250000
aI468750000
aI144
aI720
aI5040
aI55440
aI720720
aI12252240
aI232792560
aI208288080
aI9369360
aI159279120
aI121801680
aI609840
aI7927920
aI134774640
aI103062960
aI6708240
aI87207120
aI73790640
aI959278320
aI811697040
aI35280
aI388080
aI5045040
aI85765680
aI65585520
aI852611760
aI4268880
aI55495440
aI943422480
aI721440720
aI46957680
aI610449840
aI516534480
aI246960
aI2716560
aI35315280
aI600359760
aI459098640
aI29882160
aI388468080
aI328703760
aI1728720
aI19015920
aI247206960
aI209175120
aI12101040
aI133111440
aI84707280
aI931780080
aI592950960
aI3600
aI25200
aI277200
aI3603600
aI61261200
aI46846800
aI796395600
aI609008400
aI3049200
aI39639600
aI673873200
aI515314800
aI33541200
aI436035600
aI368953200
aI176400
aI1940400
aI25225200
aI428828400
aI327927600
aI21344400
aI277477200
aI234788400
aI1234800
aI13582800
aI176576400
aI149410800
aI8643600
aI95079600
aI60505200
aI665557200
aI423536400
aI18000
aI126000
aI1386000
aI18018000
aI306306000
aI234234000
aI15246000
aI198198000
aI167706000
aI882000
aI9702000
aI126126000
aI106722000
aI6174000
aI67914000
aI882882000
aI747054000
aI43218000
aI475398000
aI302526000
aI90000
aI630000
aI6930000
aI90090000
aI76230000
aI990990000
aI838530000
aI4410000
aI48510000
aI630630000
aI533610000
aI30870000
aI339570000
aI216090000
aI450000
aI3150000
aI34650000
aI450450000
aI381150000
aI22050000
aI242550000
aI154350000
aI2250000
aI15750000
aI173250000
aI110250000
aI771750000
aI11250000
aI78750000
aI866250000
aI551250000
aI56250000
aI393750000
aI281250000
aI432
aI2160
aI15120
aI166320
aI2162160
aI36756720
aI698377680
aI624864240
aI28108080
aI477837360
aI365405040
aI1829520
aI23783760
aI404323920
aI309188880
aI20124720
aI261621360
aI221371920
aI105840
aI1164240
aI15135120
aI257297040
aI196756560
aI12806640
aI166486320
aI140873040
aI740880
aI8149680
aI105945840
aI89646480
aI986111280
aI5186160
aI57047760
aI741620880
aI627525360
aI36303120
aI399334320
aI254121840
aI10800
aI75600
aI831600
aI10810800
aI183783600
aI140540400
aI9147600
aI118918800
aI100623600
aI529200
aI5821200
aI75675600
aI983782800
aI64033200
aI832431600
aI704365200
aI3704400
aI40748400
aI529729200
aI448232400
aI25930800
aI285238800
aI181515600
aI54000
aI378000
aI4158000
aI54054000
aI918918000
aI702702000
aI45738000
aI594594000
aI503118000
aI2646000
aI29106000
aI378378000
aI320166000
aI18522000
aI203742000
aI129654000
aI907578000
aI270000
aI1890000
aI20790000
aI270270000
aI228690000
aI13230000
aI145530000
aI92610000
aI648270000
aI1350000
aI9450000
aI103950000
aI66150000
aI727650000
aI463050000
aI6750000
aI47250000
aI519750000
aI330750000
aI33750000
aI236250000
aI168750000
aI843750000
aI1296
aI6480
aI45360
aI498960
aI6486480
aI110270160
aI84324240
aI5488560
aI71351280
aI927566640
aI60374160
aI784864080
aI664115760
aI317520
aI3492720
aI45405360
aI771891120
aI590269680
aI38419920
aI499458960
aI422619120
aI2222640
aI24449040
aI317837520
aI268939440
aI15558480
aI171143280
aI108909360
aI762365520
aI32400
aI226800
aI2494800
aI32432400
aI551350800
aI421621200
aI27442800
aI356756400
aI301870800
aI1587600
aI17463600
aI227026800
aI192099600
aI11113200
aI122245200
aI77792400
aI855716400
aI544546800
aI162000
aI1134000
aI12474000
aI162162000
aI137214000
aI7938000
aI87318000
aI960498000
aI55566000
aI611226000
aI388962000
aI810000
aI5670000
aI62370000
aI810810000
aI686070000
aI39690000
aI436590000
aI277830000
aI4050000
aI28350000
aI311850000
aI198450000
aI20250000
aI141750000
aI992250000
aI101250000
aI708750000
aI506250000
aI3888
aI19440
aI136080
aI1496880
aI19459440
aI330810480
aI252972720
aI16465680
aI214053840
aI181122480
aI952560
aI10478160
aI136216080
aI115259760
aI6667920
aI73347120
aI953512560
aI806818320
aI46675440
aI513429840
aI326728080
aI97200
aI680400
aI7484400
aI97297200
aI82328400
aI905612400
aI4762800
aI52390800
aI681080400
aI576298800
aI33339600
aI366735600
aI233377200
aI486000
aI3402000
aI37422000
aI486486000
aI411642000
aI23814000
aI261954000
aI166698000
aI2430000
aI17010000
aI187110000
aI119070000
aI833490000
aI12150000
aI85050000
aI935550000
aI595350000
aI60750000
aI425250000
aI303750000
aI11664
aI58320
aI408240
aI4490640
aI58378320
aI992431440
aI758918160
aI49397040
aI642161520
aI543367440
aI2857680
aI31434480
aI408648240
aI345779280
aI20003760
aI220041360
aI140026320
aI980184240
aI291600
aI2041200
aI22453200
aI291891600
aI246985200
aI14288400
aI157172400
aI100018800
aI700131600
aI1458000
aI10206000
aI112266000
aI71442000
aI785862000
aI500094000
aI7290000
aI51030000
aI561330000
aI357210000
aI36450000
aI255150000
aI182250000
aI911250000
aI34992
aI174960
aI1224720
aI13471920
aI175134960
aI148191120
aI8573040
aI94303440
aI60011280
aI660124080
aI420078960
aI874800
aI6123600
aI67359600
aI875674800
aI740955600
aI42865200
aI471517200
aI300056400
aI4374000
aI30618000
aI336798000
aI214326000
aI21870000
aI153090000
aI109350000
aI765450000
aI546750000
aI104976
aI524880
aI3674160
aI40415760
aI525404880
aI444573360
aI25719120
aI282910320
aI180033840
aI2624400
aI18370800
aI202078800
aI128595600
aI900169200
aI13122000
aI91854000
aI642978000
aI65610000
aI459270000
aI328050000
aI314928
aI1574640
aI11022480
aI121247280
aI77157360
aI848730960
aI540101520
aI7873200
aI55112400
aI606236400
aI385786800
aI39366000
aI275562000
aI196830000
aI984150000
aI944784
aI4723920
aI33067440
aI363741840
aI231472080
aI23619600
aI165337200
aI118098000
aI826686000
aI590490000
aI2834352
aI14171760
aI99202320
aI694416240
aI70858800
aI496011600
aI354294000
aI8503056
aI42515280
aI297606960
aI212576400
aI25509168
aI127545840
aI892820880
aI637729200
aI76527504
aI382637520
aI229582512
aI688747536
aI32
aI96
aI480
aI3360
aI36960
aI480480
aI8168160
aI155195040
aI138858720
aI6246240
aI106186080
aI81201120
aI406560
aI5285280
aI89849760
aI68708640
aI893212320
aI4472160
aI58138080
aI988347360
aI755795040
aI49193760
aI639518880
aI541131360
aI23520
aI258720
aI3363360
aI57177120
aI972011040
aI43723680
aI743302560
aI568407840
aI2845920
aI36996960
aI628948320
aI480960480
aI31305120
aI406966560
aI344356320
aI164640
aI1811040
aI23543520
aI400239840
aI306065760
aI19921440
aI258978720
aI219135840
aI1152480
aI12677280
aI164804640
aI139450080
aI8067360
aI88740960
aI976150560
aI56471520
aI621186720
aI395300640
aI2400
aI16800
aI184800
aI2402400
aI40840800
aI775975200
aI694293600
aI31231200
aI530930400
aI406005600
aI2032800
aI26426400
aI449248800
aI343543200
aI22360800
aI290690400
aI245968800
aI117600
aI1293600
aI16816800
aI285885600
aI218618400
aI14229600
aI184984800
aI156525600
aI823200
aI9055200
aI117717600
aI99607200
aI5762400
aI63386400
aI824023200
aI697250400
aI40336800
aI443704800
aI282357600
aI12000
aI84000
aI924000
aI12012000
aI204204000
aI156156000
aI10164000
aI132132000
aI111804000
aI588000
aI6468000
aI84084000
aI71148000
aI924924000
aI782628000
aI4116000
aI45276000
aI588588000
aI498036000
aI28812000
aI316932000
aI201684000
aI60000
aI420000
aI4620000
aI60060000
aI780780000
aI50820000
aI660660000
aI559020000
aI2940000
aI32340000
aI420420000
aI355740000
aI20580000
aI226380000
aI144060000
aI300000
aI2100000
aI23100000
aI300300000
aI254100000
aI14700000
aI161700000
aI102900000
aI720300000
aI1500000
aI10500000
aI115500000
aI73500000
aI808500000
aI514500000
aI7500000
aI52500000
aI577500000
aI367500000
aI37500000
aI262500000
aI187500000
aI937500000
aI288
aI1440
aI10080
aI110880
aI1441440
aI24504480
aI465585120
aI416576160
aI18738720
aI318558240
aI243603360
aI1219680
aI15855840
aI269549280
aI206125920
aI13416480
aI174414240
aI147581280
aI70560
aI776160
aI10090080
aI171531360
aI131171040
aI8537760
aI110990880
aI93915360
aI493920
aI5433120
aI70630560
aI918197280
aI59764320
aI776936160
aI657407520
aI3457440
aI38031840
aI494413920
aI418350240
aI24202080
aI266222880
aI169414560
aI7200
aI50400
aI554400
aI7207200
aI122522400
aI93693600
aI6098400
aI79279200
aI67082400
aI872071200
aI737906400
aI352800
aI3880800
aI50450400
aI857656800
aI655855200
aI42688800
aI554954400
aI469576800
aI2469600
aI27165600
aI353152800
aI298821600
aI17287200
aI190159200
aI121010400
aI847072800
aI36000
aI252000
aI2772000
aI36036000
aI612612000
aI468468000
aI30492000
aI396396000
aI335412000
aI1764000
aI19404000
aI252252000
aI213444000
aI12348000
aI135828000
aI86436000
aI950796000
aI605052000
aI180000
aI1260000
aI13860000
aI180180000
aI152460000
aI8820000
aI97020000
aI61740000
aI679140000
aI432180000
aI900000
aI6300000
aI69300000
aI900900000
aI762300000
aI44100000
aI485100000
aI308700000
aI4500000
aI31500000
aI346500000
aI220500000
aI22500000
aI157500000
aI112500000
aI787500000
aI562500000
aI864
aI4320
aI30240
aI332640
aI4324320
aI73513440
aI56216160
aI955674720
aI730810080
aI3659040
aI47567520
aI808647840
aI618377760
aI40249440
aI523242720
aI442743840
aI211680
aI2328480
aI30270240
aI514594080
aI393513120
aI25613280
aI332972640
aI281746080
aI1481760
aI16299360
aI211891680
aI179292960
aI10372320
aI114095520
aI72606240
aI798668640
aI508243680
aI21600
aI151200
aI1663200
aI21621600
aI367567200
aI281080800
aI18295200
aI237837600
aI201247200
aI1058400
aI11642400
aI151351200
aI128066400
aI7408800
aI81496800
aI896464800
aI51861600
aI570477600
aI363031200
aI108000
aI756000
aI8316000
aI108108000
aI91476000
aI5292000
aI58212000
aI756756000
aI640332000
aI37044000
aI407484000
aI259308000
aI540000
aI3780000
aI41580000
aI540540000
aI457380000
aI26460000
aI291060000
aI185220000
aI2700000
aI18900000
aI207900000
aI132300000
aI926100000
aI13500000
aI94500000
aI661500000
aI67500000
aI472500000
aI337500000
aI2592
aI12960
aI90720
aI997920
aI12972960
aI220540320
aI168648480
aI10977120
aI142702560
aI120748320
aI635040
aI6985440
aI90810720
aI76839840
aI998917920
aI845238240
aI4445280
aI48898080
aI635675040
aI537878880
aI31116960
aI342286560
aI217818720
aI64800
aI453600
aI4989600
aI64864800
aI843242400
aI54885600
aI713512800
aI603741600
aI3175200
aI34927200
aI454053600
aI384199200
aI22226400
aI244490400
aI155584800
aI324000
aI2268000
aI24948000
aI324324000
aI274428000
aI15876000
aI174636000
aI111132000
aI777924000
aI1620000
aI11340000
aI124740000
aI79380000
aI873180000
aI555660000
aI8100000
aI56700000
aI623700000
aI396900000
aI40500000
aI283500000
aI202500000
aI7776
aI38880
aI272160
aI2993760
aI38918880
aI661620960
aI505945440
aI32931360
aI428107680
aI362244960
aI1905120
aI20956320
aI272432160
aI230519520
aI13335840
aI146694240
aI93350880
aI653456160
aI194400
aI1360800
aI14968800
aI194594400
aI164656800
aI9525600
aI104781600
aI66679200
aI733471200
aI466754400
aI972000
aI6804000
aI74844000
aI972972000
aI823284000
aI47628000
aI523908000
aI333396000
aI4860000
aI34020000
aI374220000
aI238140000
aI24300000
aI170100000
aI121500000
aI850500000
aI607500000
aI23328
aI116640
aI816480
aI8981280
aI116756640
aI98794080
aI5715360
aI62868960
aI817296480
aI691558560
aI40007520
aI440082720
aI280052640
aI583200
aI4082400
aI44906400
aI583783200
aI493970400
aI28576800
aI314344800
aI200037600
aI2916000
aI20412000
aI224532000
aI142884000
aI14580000
aI102060000
aI714420000
aI72900000
aI510300000
aI364500000
aI69984
aI349920
aI2449440
aI26943840
aI350269920
aI296382240
aI17146080
aI188606880
aI120022560
aI840157920
aI1749600
aI12247200
aI134719200
aI85730400
aI943034400
aI600112800
aI8748000
aI61236000
aI673596000
aI428652000
aI43740000
aI306180000
aI218700000
aI209952
aI1049760
aI7348320
aI80831520
aI889146720
aI51438240
aI565820640
aI360067680
aI5248800
aI36741600
aI404157600
aI257191200
aI26244000
aI183708000
aI131220000
aI918540000
aI656100000
aI629856
aI3149280
aI22044960
aI242494560
aI154314720
aI15746400
aI110224800
aI771573600
aI78732000
aI551124000
aI393660000
aI1889568
aI9447840
aI66134880
aI727483680
aI462944160
aI47239200
aI330674400
aI236196000
aI5668704
aI28343520
aI198404640
aI141717600
aI992023200
aI708588000
aI17006112
aI85030560
aI595213920
aI425152800
aI51018336
aI255091680
aI153055008
aI765275040
aI459165024
aI64
aI192
aI960
aI6720
aI73920
aI960960
aI16336320
aI310390080
aI277717440
aI12492480
aI212372160
aI162402240
aI813120
aI10570560
aI179699520
aI137417280
aI8944320
aI116276160
aI98387520
aI47040
aI517440
aI6726720
aI114354240
aI87447360
aI5691840
aI73993920
aI961920960
aI62610240
aI813933120
aI688712640
aI329280
aI3622080
aI47087040
aI800479680
aI612131520
aI39842880
aI517957440
aI438271680
aI2304960
aI25354560
aI329609280
aI278900160
aI16134720
aI177481920
aI112943040
aI790601280
aI4800
aI33600
aI369600
aI4804800
aI81681600
aI62462400
aI812011200
aI4065600
aI52852800
aI898497600
aI687086400
aI44721600
aI581380800
aI491937600
aI235200
aI2587200
aI33633600
aI571771200
aI437236800
aI28459200
aI369969600
aI313051200
aI1646400
aI18110400
aI235435200
aI199214400
aI11524800
aI126772800
aI80673600
aI887409600
aI564715200
aI24000
aI168000
aI1848000
aI24024000
aI408408000
aI312312000
aI20328000
aI264264000
aI223608000
aI1176000
aI12936000
aI168168000
aI142296000
aI8232000
aI90552000
aI996072000
aI57624000
aI633864000
aI403368000
aI120000
aI840000
aI9240000
aI120120000
aI101640000
aI5880000
aI64680000
aI840840000
aI711480000
aI41160000
aI452760000
aI288120000
aI600000
aI4200000
aI46200000
aI600600000
aI508200000
aI29400000
aI323400000
aI205800000
aI3000000
aI21000000
aI231000000
aI147000000
aI15000000
aI105000000
aI735000000
aI75000000
aI525000000
aI375000000
aI576
aI2880
aI20160
aI221760
aI2882880
aI49008960
aI931170240
aI833152320
aI37477440
aI637116480
aI487206720
aI2439360
aI31711680
aI539098560
aI412251840
aI26832960
aI348828480
aI295162560
aI141120
aI1552320
aI20180160
aI343062720
aI262342080
aI17075520
aI221981760
aI187830720
aI987840
aI10866240
aI141261120
aI119528640
aI6914880
aI76063680
aI988827840
aI836700480
aI48404160
aI532445760
aI338829120
aI14400
aI100800
aI1108800
aI14414400
aI245044800
aI187387200
aI12196800
aI158558400
aI134164800
aI705600
aI7761600
aI100900800
aI85377600
aI939153600
aI4939200
aI54331200
aI706305600
aI597643200
aI34574400
aI380318400
aI242020800
aI72000
aI504000
aI5544000
aI72072000
aI936936000
aI60984000
aI792792000
aI670824000
aI3528000
aI38808000
aI504504000
aI426888000
aI24696000
aI271656000
aI172872000
aI360000
aI2520000
aI27720000
aI360360000
aI304920000
aI17640000
aI194040000
aI123480000
aI864360000
aI1800000
aI12600000
aI138600000
aI88200000
aI970200000
aI617400000
aI9000000
aI63000000
aI693000000
aI441000000
aI45000000
aI315000000
aI225000000
aI1728
aI8640
aI60480
aI665280
aI8648640
aI147026880
aI112432320
aI7318080
aI95135040
aI80498880
aI885487680
aI423360
aI4656960
aI60540480
aI787026240
aI51226560
aI665945280
aI563492160
aI2963520
aI32598720
aI423783360
aI358585920
aI20744640
aI228191040
aI145212480
aI43200
aI302400
aI3326400
aI43243200
aI735134400
aI562161600
aI36590400
aI475675200
aI402494400
aI2116800
aI23284800
aI302702400
aI256132800
aI14817600
aI162993600
aI103723200
aI726062400
aI216000
aI1512000
aI16632000
aI216216000
aI182952000
aI10584000
aI116424000
aI74088000
aI814968000
aI518616000
aI1080000
aI7560000
aI83160000
aI914760000
aI52920000
aI582120000
aI370440000
aI5400000
aI37800000
aI415800000
aI264600000
aI27000000
aI189000000
aI135000000
aI945000000
aI675000000
aI5184
aI25920
aI181440
aI1995840
aI25945920
aI441080640
aI337296960
aI21954240
aI285405120
aI241496640
aI1270080
aI13970880
aI181621440
aI153679680
aI8890560
aI97796160
aI62233920
aI684573120
aI435637440
aI129600
aI907200
aI9979200
aI129729600
aI109771200
aI6350400
aI69854400
aI908107200
aI768398400
aI44452800
aI488980800
aI311169600
aI648000
aI4536000
aI49896000
aI648648000
aI548856000
aI31752000
aI349272000
aI222264000
aI3240000
aI22680000
aI249480000
aI158760000
aI16200000
aI113400000
aI793800000
aI81000000
aI567000000
aI405000000
aI15552
aI77760
aI544320
aI5987520
aI77837760
aI65862720
aI856215360
aI724489920
aI3810240
aI41912640
aI544864320
aI461039040
aI26671680
aI293388480
aI186701760
aI388800
aI2721600
aI29937600
aI389188800
aI329313600
aI19051200
aI209563200
aI133358400
aI933508800
aI1944000
aI13608000
aI149688000
aI95256000
aI666792000
aI9720000
aI68040000
aI748440000
aI476280000
aI48600000
aI340200000
aI243000000
aI46656
aI233280
aI1632960
aI17962560
aI233513280
aI197588160
aI11430720
aI125737920
aI80015040
aI880165440
aI560105280
aI1166400
aI8164800
aI89812800
aI987940800
aI57153600
aI628689600
aI400075200
aI5832000
aI40824000
aI449064000
aI285768000
aI29160000
aI204120000
aI145800000
aI729000000
aI139968
aI699840
aI4898880
aI53887680
aI700539840
aI592764480
aI34292160
aI377213760
aI240045120
aI3499200
aI24494400
aI269438400
aI171460800
aI17496000
aI122472000
aI857304000
aI87480000
aI612360000
aI437400000
aI419904
aI2099520
aI14696640
aI161663040
aI102876480
aI720135360
aI10497600
aI73483200
aI808315200
aI514382400
aI52488000
aI367416000
aI262440000
aI1259712
aI6298560
aI44089920
aI484989120
aI308629440
aI31492800
aI220449600
aI157464000
aI787320000
aI3779136
aI18895680
aI132269760
aI925888320
aI94478400
aI661348800
aI472392000
aI11337408
aI56687040
aI396809280
aI283435200
aI34012224
aI170061120
aI850305600
aI102036672
aI510183360
aI306110016
aI918330048
aI128
aI384
aI1920
aI13440
aI147840
aI1921920
aI32672640
aI620780160
aI555434880
aI24984960
aI424744320
aI324804480
aI1626240
aI21141120
aI359399040
aI274834560
aI17888640
aI232552320
aI196775040
aI94080
aI1034880
aI13453440
aI228708480
aI174894720
aI11383680
aI147987840
aI125220480
aI658560
aI7244160
aI94174080
aI79685760
aI876543360
aI4609920
aI50709120
aI659218560
aI557800320
aI32269440
aI354963840
aI225886080
aI9600
aI67200
aI739200
aI9609600
aI163363200
aI124924800
aI8131200
aI105705600
aI89443200
aI983875200
aI470400
aI5174400
aI67267200
aI874473600
aI56918400
aI739939200
aI626102400
aI3292800
aI36220800
aI470870400
aI398428800
aI23049600
aI253545600
aI161347200
aI48000
aI336000
aI3696000
aI48048000
aI816816000
aI624624000
aI40656000
aI528528000
aI447216000
aI2352000
aI25872000
aI336336000
aI284592000
aI16464000
aI181104000
aI115248000
aI806736000
aI240000
aI1680000
aI18480000
aI240240000
aI203280000
aI11760000
aI129360000
aI82320000
aI905520000
aI576240000
aI1200000
aI8400000
aI92400000
aI58800000
aI646800000
aI411600000
aI6000000
aI42000000
aI462000000
aI294000000
aI30000000
aI210000000
aI150000000
aI750000000
aI1152
aI5760
aI40320
aI443520
aI5765760
aI98017920
aI74954880
aI974413440
aI4878720
aI63423360
aI824503680
aI53665920
aI697656960
aI590325120
aI282240
aI3104640
aI40360320
aI686125440
aI524684160
aI34151040
aI443963520
aI375661440
aI1975680
aI21732480
aI282522240
aI239057280
aI13829760
aI152127360
aI96808320
aI677658240
aI28800
aI201600
aI2217600
aI28828800
aI490089600
aI374774400
aI24393600
aI317116800
aI268329600
aI1411200
aI15523200
aI201801600
aI170755200
aI9878400
aI108662400
aI69148800
aI760636800
aI484041600
aI144000
aI1008000
aI11088000
aI144144000
aI121968000
aI7056000
aI77616000
aI853776000
aI49392000
aI543312000
aI345744000
aI720000
aI5040000
aI55440000
aI720720000
aI609840000
aI35280000
aI388080000
aI246960000
aI3600000
aI25200000
aI277200000
aI176400000
aI18000000
aI126000000
aI882000000
aI90000000
aI630000000
aI450000000
aI3456
aI17280
aI120960
aI1330560
aI17297280
aI294053760
aI224864640
aI14636160
aI190270080
aI160997760
aI846720
aI9313920
aI121080960
aI102453120
aI5927040
aI65197440
aI847566720
aI717171840
aI41489280
aI456382080
aI290424960
aI86400
aI604800
aI6652800
aI86486400
aI73180800
aI951350400
aI804988800
aI4233600
aI46569600
aI605404800
aI512265600
aI29635200
aI325987200
aI207446400
aI432000
aI3024000
aI33264000
aI432432000
aI365904000
aI21168000
aI232848000
aI148176000
aI2160000
aI15120000
aI166320000
aI105840000
aI740880000
aI10800000
aI75600000
aI831600000
aI529200000
aI54000000
aI378000000
aI270000000
aI10368
aI51840
aI362880
aI3991680
aI51891840
aI882161280
aI674593920
aI43908480
aI570810240
aI482993280
aI2540160
aI27941760
aI363242880
aI307359360
aI17781120
aI195592320
aI124467840
aI871274880
aI259200
aI1814400
aI19958400
aI259459200
aI219542400
aI12700800
aI139708800
aI88905600
aI977961600
aI622339200
aI1296000
aI9072000
aI99792000
aI63504000
aI698544000
aI444528000
aI6480000
aI45360000
aI498960000
aI317520000
aI32400000
aI226800000
aI162000000
aI810000000
aI31104
aI155520
aI1088640
aI11975040
aI155675520
aI131725440
aI7620480
aI83825280
aI922078080
aI53343360
aI586776960
aI373403520
aI777600
aI5443200
aI59875200
aI778377600
aI658627200
aI38102400
aI419126400
aI266716800
aI3888000
aI27216000
aI299376000
aI190512000
aI19440000
aI136080000
aI952560000
aI97200000
aI680400000
aI486000000
aI93312
aI466560
aI3265920
aI35925120
aI467026560
aI395176320
aI22861440
aI251475840
aI160030080
aI2332800
aI16329600
aI179625600
aI114307200
aI800150400
aI11664000
aI81648000
aI898128000
aI571536000
aI58320000
aI408240000
aI291600000
aI279936
aI1399680
aI9797760
aI107775360
aI68584320
aI754427520
aI480090240
aI6998400
aI48988800
aI538876800
aI342921600
aI34992000
aI244944000
aI174960000
aI874800000
aI839808
aI4199040
aI29393280
aI323326080
aI205752960
aI20995200
aI146966400
aI104976000
aI734832000
aI524880000
aI2519424
aI12597120
aI88179840
aI969978240
aI617258880
aI62985600
aI440899200
aI314928000
aI7558272
aI37791360
aI264539520
aI188956800
aI944784000
aI22674816
aI113374080
aI793618560
aI566870400
aI68024448
aI340122240
aI204073344
aI612220032
aI256
aI768
aI3840
aI26880
aI295680
aI3843840
aI65345280
aI49969920
aI849488640
aI649608960
aI3252480
aI42282240
aI718798080
aI549669120
aI35777280
aI465104640
aI393550080
aI188160
aI2069760
aI26906880
aI457416960
aI349789440
aI22767360
aI295975680
aI250440960
aI1317120
aI14488320
aI188348160
aI159371520
aI9219840
aI101418240
aI64538880
aI709927680
aI451772160
aI19200
aI134400
aI1478400
aI19219200
aI326726400
aI249849600
aI16262400
aI211411200
aI178886400
aI940800
aI10348800
aI134534400
aI113836800
aI6585600
aI72441600
aI941740800
aI796857600
aI46099200
aI507091200
aI322694400
aI96000
aI672000
aI7392000
aI96096000
aI81312000
aI894432000
aI4704000
aI51744000
aI672672000
aI569184000
aI32928000
aI362208000
aI230496000
aI480000
aI3360000
aI36960000
aI480480000
aI406560000
aI23520000
aI258720000
aI164640000
aI2400000
aI16800000
aI184800000
aI117600000
aI823200000
aI12000000
aI84000000
aI924000000
aI588000000
aI60000000
aI420000000
aI300000000
aI2304
aI11520
aI80640
aI887040
aI11531520
aI196035840
aI149909760
aI9757440
aI126846720
aI107331840
aI564480
aI6209280
aI80720640
aI68302080
aI887927040
aI751322880
aI3951360
aI43464960
aI565044480
aI478114560
aI27659520
aI304254720
aI193616640
aI57600
aI403200
aI4435200
aI57657600
aI980179200
aI749548800
aI48787200
aI634233600
aI536659200
aI2822400
aI31046400
aI403603200
aI341510400
aI19756800
aI217324800
aI138297600
aI968083200
aI288000
aI2016000
aI22176000
aI288288000
aI243936000
aI14112000
aI155232000
aI98784000
aI691488000
aI1440000
aI10080000
aI110880000
aI70560000
aI776160000
aI493920000
aI7200000
aI50400000
aI554400000
aI352800000
aI36000000
aI252000000
aI180000000
aI900000000
aI6912
aI34560
aI241920
aI2661120
aI34594560
aI588107520
aI449729280
aI29272320
aI380540160
aI321995520
aI1693440
aI18627840
aI242161920
aI204906240
aI11854080
aI130394880
aI82978560
aI912764160
aI580849920
aI172800
aI1209600
aI13305600
aI172972800
aI146361600
aI8467200
aI93139200
aI59270400
aI651974400
aI414892800
aI864000
aI6048000
aI66528000
aI864864000
aI731808000
aI42336000
aI465696000
aI296352000
aI4320000
aI30240000
aI332640000
aI211680000
aI21600000
aI151200000
aI108000000
aI756000000
aI540000000
aI20736
aI103680
aI725760
aI7983360
aI103783680
aI87816960
aI965986560
aI5080320
aI55883520
aI726485760
aI614718720
aI35562240
aI391184640
aI248935680
aI518400
aI3628800
aI39916800
aI518918400
aI439084800
aI25401600
aI279417600
aI177811200
aI2592000
aI18144000
aI199584000
aI127008000
aI889056000
aI12960000
aI90720000
aI997920000
aI635040000
aI64800000
aI453600000
aI324000000
aI62208
aI311040
aI2177280
aI23950080
aI311351040
aI263450880
aI15240960
aI167650560
aI106686720
aI746807040
aI1555200
aI10886400
aI119750400
aI76204800
aI838252800
aI533433600
aI7776000
aI54432000
aI598752000
aI381024000
aI38880000
aI272160000
aI194400000
aI972000000
aI186624
aI933120
aI6531840
aI71850240
aI934053120
aI790352640
aI45722880
aI502951680
aI320060160
aI4665600
aI32659200
aI359251200
aI228614400
aI23328000
aI163296000
aI116640000
aI816480000
aI583200000
aI559872
aI2799360
aI19595520
aI215550720
aI137168640
aI960180480
aI13996800
aI97977600
aI685843200
aI69984000
aI489888000
aI349920000
aI1679616
aI8398080
aI58786560
aI646652160
aI411505920
aI41990400
aI293932800
aI209952000
aI5038848
aI25194240
aI176359680
aI125971200
aI881798400
aI629856000
aI15116544
aI75582720
aI529079040
aI377913600
aI45349632
aI226748160
aI136048896
aI680244480
aI408146688
aI512
aI1536
aI7680
aI53760
aI591360
aI7687680
aI130690560
aI99939840
aI6504960
aI84564480
aI71554560
aI930209280
aI787100160
aI376320
aI4139520
aI53813760
aI914833920
aI699578880
aI45534720
aI591951360
aI500881920
aI2634240
aI28976640
aI376696320
aI318743040
aI18439680
aI202836480
aI129077760
aI903544320
aI38400
aI268800
aI2956800
aI38438400
aI653452800
aI499699200
aI32524800
aI422822400
aI357772800
aI1881600
aI20697600
aI269068800
aI227673600
aI13171200
aI144883200
aI92198400
aI645388800
aI192000
aI1344000
aI14784000
aI192192000
aI162624000
aI9408000
aI103488000
aI65856000
aI724416000
aI460992000
aI960000
aI6720000
aI73920000
aI960960000
aI813120000
aI47040000
aI517440000
aI329280000
aI4800000
aI33600000
aI369600000
aI235200000
aI24000000
aI168000000
aI120000000
aI840000000
aI600000000
aI4608
aI23040
aI161280
aI1774080
aI23063040
aI392071680
aI299819520
aI19514880
aI253693440
aI214663680
aI1128960
aI12418560
aI161441280
aI136604160
aI7902720
aI86929920
aI956229120
aI55319040
aI608509440
aI387233280
aI115200
aI806400
aI8870400
aI115315200
aI97574400
aI5644800
aI62092800
aI807206400
aI683020800
aI39513600
aI434649600
aI276595200
aI576000
aI4032000
aI44352000
aI576576000
aI487872000
aI28224000
aI310464000
aI197568000
aI2880000
aI20160000
aI221760000
aI141120000
aI987840000
aI14400000
aI100800000
aI705600000
aI72000000
aI504000000
aI360000000
aI13824
aI69120
aI483840
aI5322240
aI69189120
aI899458560
aI58544640
aI761080320
aI643991040
aI3386880
aI37255680
aI484323840
aI409812480
aI23708160
aI260789760
aI165957120
aI345600
aI2419200
aI26611200
aI345945600
aI292723200
aI16934400
aI186278400
aI118540800
aI829785600
aI1728000
aI12096000
aI133056000
aI84672000
aI931392000
aI592704000
aI8640000
aI60480000
aI665280000
aI423360000
aI43200000
aI302400000
aI216000000
aI41472
aI207360
aI1451520
aI15966720
aI207567360
aI175633920
aI10160640
aI111767040
aI71124480
aI782369280
aI497871360
aI1036800
aI7257600
aI79833600
aI878169600
aI50803200
aI558835200
aI355622400
aI5184000
aI36288000
aI399168000
aI254016000
aI25920000
aI181440000
aI129600000
aI907200000
aI648000000
aI124416
aI622080
aI4354560
aI47900160
aI622702080
aI526901760
aI30481920
aI335301120
aI213373440
aI3110400
aI21772800
aI239500800
aI152409600
aI15552000
aI108864000
aI762048000
aI77760000
aI544320000
aI388800000
aI373248
aI1866240
aI13063680
aI143700480
aI91445760
aI640120320
aI9331200
aI65318400
aI718502400
aI457228800
aI46656000
aI326592000
aI233280000
aI1119744
aI5598720
aI39191040
aI431101440
aI274337280
aI27993600
aI195955200
aI139968000
aI979776000
aI699840000
aI3359232
aI16796160
aI117573120
aI823011840
aI83980800
aI587865600
aI419904000
aI10077696
aI50388480
aI352719360
aI251942400
aI30233088
aI151165440
aI755827200
aI90699264
aI453496320
aI272097792
aI816293376
aI1024
aI3072
aI15360
aI107520
aI1182720
aI15375360
aI261381120
aI199879680
aI13009920
aI169128960
aI143109120
aI752640
aI8279040
aI107627520
aI91069440
aI5268480
aI57953280
aI753392640
aI637486080
aI36879360
aI405672960
aI258155520
aI76800
aI537600
aI5913600
aI76876800
aI999398400
aI65049600
aI845644800
aI715545600
aI3763200
aI41395200
aI538137600
aI455347200
aI26342400
aI289766400
aI184396800
aI384000
aI2688000
aI29568000
aI384384000
aI325248000
aI18816000
aI206976000
aI131712000
aI921984000
aI1920000
aI13440000
aI147840000
aI94080000
aI658560000
aI9600000
aI67200000
aI739200000
aI470400000
aI48000000
aI336000000
aI240000000
aI9216
aI46080
aI322560
aI3548160
aI46126080
aI784143360
aI599639040
aI39029760
aI507386880
aI429327360
aI2257920
aI24837120
aI322882560
aI273208320
aI15805440
aI173859840
aI110638080
aI774466560
aI230400
aI1612800
aI17740800
aI230630400
aI195148800
aI11289600
aI124185600
aI79027200
aI869299200
aI553190400
aI1152000
aI8064000
aI88704000
aI975744000
aI56448000
aI620928000
aI395136000
aI5760000
aI40320000
aI443520000
aI282240000
aI28800000
aI201600000
aI144000000
aI720000000
aI27648
aI138240
aI967680
aI10644480
aI138378240
aI117089280
aI6773760
aI74511360
aI968647680
aI819624960
aI47416320
aI521579520
aI331914240
aI691200
aI4838400
aI53222400
aI691891200
aI585446400
aI33868800
aI372556800
aI237081600
aI3456000
aI24192000
aI266112000
aI169344000
aI17280000
aI120960000
aI846720000
aI86400000
aI604800000
aI432000000
aI82944
aI414720
aI2903040
aI31933440
aI415134720
aI351267840
aI20321280
aI223534080
aI142248960
aI995742720
aI2073600
aI14515200
aI159667200
aI101606400
aI711244800
aI10368000
aI72576000
aI798336000
aI508032000
aI51840000
aI362880000
aI259200000
aI248832
aI1244160
aI8709120
aI95800320
aI60963840
aI670602240
aI426746880
aI6220800
aI43545600
aI479001600
aI304819200
aI31104000
aI217728000
aI155520000
aI777600000
aI746496
aI3732480
aI26127360
aI287400960
aI182891520
aI18662400
aI130636800
aI914457600
aI93312000
aI653184000
aI466560000
aI2239488
aI11197440
aI78382080
aI862202880
aI548674560
aI55987200
aI391910400
aI279936000
aI6718464
aI33592320
aI235146240
aI167961600
aI839808000
aI20155392
aI100776960
aI705438720
aI503884800
aI60466176
aI302330880
aI181398528
aI906992640
aI544195584
aI2048
aI6144
aI30720
aI215040
aI2365440
aI30750720
aI522762240
aI399759360
aI26019840
aI338257920
aI286218240
aI1505280
aI16558080
aI215255040
aI182138880
aI10536960
aI115906560
aI73758720
aI811345920
aI516311040
aI153600
aI1075200
aI11827200
aI153753600
aI130099200
aI7526400
aI82790400
aI910694400
aI52684800
aI579532800
aI368793600
aI768000
aI5376000
aI59136000
aI768768000
aI650496000
aI37632000
aI413952000
aI263424000
aI3840000
aI26880000
aI295680000
aI188160000
aI19200000
aI134400000
aI940800000
aI96000000
aI672000000
aI480000000
aI18432
aI92160
aI645120
aI7096320
aI92252160
aI78059520
aI858654720
aI4515840
aI49674240
aI645765120
aI546416640
aI31610880
aI347719680
aI221276160
aI460800
aI3225600
aI35481600
aI461260800
aI390297600
aI22579200
aI248371200
aI158054400
aI2304000
aI16128000
aI177408000
aI112896000
aI790272000
aI11520000
aI80640000
aI887040000
aI564480000
aI57600000
aI403200000
aI288000000
aI55296
aI276480
aI1935360
aI21288960
aI276756480
aI234178560
aI13547520
aI149022720
aI94832640
aI663828480
aI1382400
aI9676800
aI106444800
aI67737600
aI745113600
aI474163200
aI6912000
aI48384000
aI532224000
aI338688000
aI34560000
aI241920000
aI172800000
aI864000000
aI165888
aI829440
aI5806080
aI63866880
aI830269440
aI702535680
aI40642560
aI447068160
aI284497920
aI4147200
aI29030400
aI319334400
aI203212800
aI20736000
aI145152000
aI103680000
aI725760000
aI518400000
aI497664
aI2488320
aI17418240
aI191600640
aI121927680
aI853493760
aI12441600
aI87091200
aI958003200
aI609638400
aI62208000
aI435456000
aI311040000
aI1492992
aI7464960
aI52254720
aI574801920
aI365783040
aI37324800
aI261273600
aI186624000
aI933120000
aI4478976
aI22394880
aI156764160
aI111974400
aI783820800
aI559872000
aI13436928
aI67184640
aI470292480
aI335923200
aI40310784
aI201553920
aI120932352
aI604661760
aI362797056
aI4096
aI12288
aI61440
aI430080
aI4730880
aI61501440
aI799518720
aI52039680
aI676515840
aI572436480
aI3010560
aI33116160
aI430510080
aI364277760
aI21073920
aI231813120
aI147517440
aI307200
aI2150400
aI23654400
aI307507200
aI260198400
aI15052800
aI165580800
aI105369600
aI737587200
aI1536000
aI10752000
aI118272000
aI75264000
aI827904000
aI526848000
aI7680000
aI53760000
aI591360000
aI376320000
aI38400000
aI268800000
aI192000000
aI960000000
aI36864
aI184320
aI1290240
aI14192640
aI184504320
aI156119040
aI9031680
aI99348480
aI63221760
aI695439360
aI442552320
aI921600
aI6451200
aI70963200
aI922521600
aI780595200
aI45158400
aI496742400
aI316108800
aI4608000
aI32256000
aI354816000
aI225792000
aI23040000
aI161280000
aI115200000
aI806400000
aI576000000
aI110592
aI552960
aI3870720
aI42577920
aI553512960
aI468357120
aI27095040
aI298045440
aI189665280
aI2764800
aI19353600
aI212889600
aI135475200
aI948326400
aI13824000
aI96768000
aI677376000
aI69120000
aI483840000
aI345600000
aI331776
aI1658880
aI11612160
aI127733760
aI81285120
aI894136320
aI568995840
aI8294400
aI58060800
aI638668800
aI406425600
aI41472000
aI290304000
aI207360000
aI995328
aI4976640
aI34836480
aI383201280
aI243855360
aI24883200
aI174182400
aI124416000
aI870912000
aI622080000
aI2985984
aI14929920
aI104509440
aI731566080
aI74649600
aI522547200
aI373248000
aI8957952
aI44789760
aI313528320
aI223948800
aI26873856
aI134369280
aI940584960
aI671846400
aI80621568
aI403107840
aI241864704
aI725594112
aI8192
aI24576
aI122880
aI860160
aI9461760
aI123002880
aI104079360
aI6021120
aI66232320
aI861020160
aI728555520
aI42147840
aI463626240
aI295034880
aI614400
aI4300800
aI47308800
aI615014400
aI520396800
aI30105600
aI331161600
aI210739200
aI3072000
aI21504000
aI236544000
aI150528000
aI15360000
aI107520000
aI752640000
aI76800000
aI537600000
aI384000000
aI73728
aI368640
aI2580480
aI28385280
aI369008640
aI312238080
aI18063360
aI198696960
aI126443520
aI885104640
aI1843200
aI12902400
aI141926400
aI90316800
aI993484800
aI632217600
aI9216000
aI64512000
aI709632000
aI451584000
aI46080000
aI322560000
aI230400000
aI221184
aI1105920
aI7741440
aI85155840
aI936714240
aI54190080
aI596090880
aI379330560
aI5529600
aI38707200
aI425779200
aI270950400
aI27648000
aI193536000
aI138240000
aI967680000
aI691200000
aI663552
aI3317760
aI23224320
aI255467520
aI162570240
aI16588800
aI116121600
aI812851200
aI82944000
aI580608000
aI414720000
aI1990656
aI9953280
aI69672960
aI766402560
aI487710720
aI49766400
aI348364800
aI248832000
aI5971968
aI29859840
aI209018880
aI149299200
aI746496000
aI17915904
aI89579520
aI627056640
aI447897600
aI53747712
aI268738560
aI161243136
aI806215680
aI483729408
aI16384
aI49152
aI245760
aI1720320
aI18923520
aI246005760
aI208158720
aI12042240
aI132464640
aI84295680
aI927252480
aI590069760
aI1228800
aI8601600
aI94617600
aI60211200
aI662323200
aI421478400
aI6144000
aI43008000
aI473088000
aI301056000
aI30720000
aI215040000
aI153600000
aI768000000
aI147456
aI737280
aI5160960
aI56770560
aI738017280
aI624476160
aI36126720
aI397393920
aI252887040
aI3686400
aI25804800
aI283852800
aI180633600
aI18432000
aI129024000
aI903168000
aI92160000
aI645120000
aI460800000
aI442368
aI2211840
aI15482880
aI170311680
aI108380160
aI758661120
aI11059200
aI77414400
aI851558400
aI541900800
aI55296000
aI387072000
aI276480000
aI1327104
aI6635520
aI46448640
aI510935040
aI325140480
aI33177600
aI232243200
aI165888000
aI829440000
aI3981312
aI19906560
aI139345920
aI975421440
aI99532800
aI696729600
aI497664000
aI11943936
aI59719680
aI418037760
aI298598400
aI35831808
aI179159040
aI895795200
aI107495424
aI537477120
aI322486272
aI967458816
aI32768
aI98304
aI491520
aI3440640
aI37847040
aI492011520
aI416317440
aI24084480
aI264929280
aI168591360
aI2457600
aI17203200
aI189235200
aI120422400
aI842956800
aI12288000
aI86016000
aI946176000
aI602112000
aI61440000
aI430080000
aI307200000
aI294912
aI1474560
aI10321920
aI113541120
aI72253440
aI794787840
aI505774080
aI7372800
aI51609600
aI567705600
aI361267200
aI36864000
aI258048000
aI184320000
aI921600000
aI884736
aI4423680
aI30965760
aI340623360
aI216760320
aI22118400
aI154828800
aI110592000
aI774144000
aI552960000
aI2654208
aI13271040
aI92897280
aI650280960
aI66355200
aI464486400
aI331776000
aI7962624
aI39813120
aI278691840
aI199065600
aI995328000
aI23887872
aI119439360
aI836075520
aI597196800
aI71663616
aI358318080
aI214990848
aI644972544
aI65536
aI196608
aI983040
aI6881280
aI75694080
aI984023040
aI832634880
aI48168960
aI529858560
aI337182720
aI4915200
aI34406400
aI378470400
aI240844800
aI24576000
aI172032000
aI122880000
aI860160000
aI614400000
aI589824
aI2949120
aI20643840
aI227082240
aI144506880
aI14745600
aI103219200
aI722534400
aI73728000
aI516096000
aI368640000
aI1769472
aI8847360
aI61931520
aI681246720
aI433520640
aI44236800
aI309657600
aI221184000
aI5308416
aI26542080
aI185794560
aI132710400
aI928972800
aI663552000
aI15925248
aI79626240
aI557383680
aI398131200
aI47775744
aI238878720
aI143327232
aI716636160
aI429981696
aI131072
aI393216
aI1966080
aI13762560
aI151388160
aI96337920
aI674365440
aI9830400
aI68812800
aI756940800
aI481689600
aI49152000
aI344064000
aI245760000
aI1179648
aI5898240
aI41287680
aI454164480
aI289013760
aI29491200
aI206438400
aI147456000
aI737280000
aI3538944
aI17694720
aI123863040
aI867041280
aI88473600
aI619315200
aI442368000
aI10616832
aI53084160
aI371589120
aI265420800
aI31850496
aI159252480
aI796262400
aI95551488
aI477757440
aI286654464
aI859963392
aI262144
aI786432
aI3932160
aI27525120
aI302776320
aI192675840
aI19660800
aI137625600
aI963379200
aI98304000
aI688128000
aI491520000
aI2359296
aI11796480
aI82575360
aI908328960
aI578027520
aI58982400
aI412876800
aI294912000
aI7077888
aI35389440
aI247726080
aI176947200
aI884736000
aI21233664
aI106168320
aI743178240
aI530841600
aI63700992
aI318504960
aI191102976
aI955514880
aI573308928
aI524288
aI1572864
aI7864320
aI55050240
aI605552640
aI385351680
aI39321600
aI275251200
aI196608000
aI983040000
aI4718592
aI23592960
aI165150720
aI117964800
aI825753600
aI589824000
aI14155776
aI70778880
aI495452160
aI353894400
aI42467328
aI212336640
aI127401984
aI637009920
aI382205952
aI1048576
aI3145728
aI15728640
aI110100480
aI770703360
aI78643200
aI550502400
aI393216000
aI9437184
aI47185920
aI330301440
aI235929600
aI28311552
aI141557760
aI990904320
aI707788800
aI84934656
aI424673280
aI254803968
aI764411904
aI2097152
aI6291456
aI31457280
aI220200960
aI157286400
aI786432000
aI18874368
aI94371840
aI660602880
aI471859200
aI56623104
aI283115520
aI169869312
aI849346560
aI509607936
aI4194304
aI12582912
aI62914560
aI440401920
aI314572800
aI37748736
aI188743680
aI943718400
aI113246208
aI566231040
aI339738624
aI8388608
aI25165824
aI125829120
aI880803840
aI629145600
aI75497472
aI377487360
aI226492416
aI679477248
aI16777216
aI50331648
aI251658240
aI150994944
aI754974720
aI452984832
aI33554432
aI100663296
aI503316480
aI301989888
aI905969664
aI67108864
aI201326592
aI603979776
aI134217728
aI402653184
aI268435456
aI805306368
aI536870912
a.